; Function Attrs: nounwind uwtable
define hidden noundef nonnull ptr @SHA256(ptr noundef %0, i64 noundef %1, ptr noundef writeonly captures(address_is_null, ret: address, provenance) %2) local_unnamed_addr #2 {
  %4 = alloca %struct.sha256_state_st, align 4
  call void @llvm.lifetime.start.p0(i64 112, ptr nonnull %4) #6
  %5 = getelementptr inbounds nuw i8, ptr %4, i64 32
  call void @llvm.memset.p0.i64(ptr noundef nonnull align 4 dereferenceable(112) %5, i8 0, i64 76, i1 false)
  store i32 1779033703, ptr %4, align 4, !tbaa !6
  %6 = getelementptr inbounds nuw i8, ptr %4, i64 4
  store i32 -1150833019, ptr %6, align 4, !tbaa !6
  %7 = getelementptr inbounds nuw i8, ptr %4, i64 8
  store i32 1013904242, ptr %7, align 4, !tbaa !6
  %8 = getelementptr inbounds nuw i8, ptr %4, i64 12
  store i32 -1521486534, ptr %8, align 4, !tbaa !6
  %9 = getelementptr inbounds nuw i8, ptr %4, i64 16
  store i32 1359893119, ptr %9, align 4, !tbaa !6
  %10 = getelementptr inbounds nuw i8, ptr %4, i64 20
  store i32 -1694144372, ptr %10, align 4, !tbaa !6
  %11 = getelementptr inbounds nuw i8, ptr %4, i64 24
  store i32 528734635, ptr %11, align 4, !tbaa !6
  %12 = getelementptr inbounds nuw i8, ptr %4, i64 28
  store i32 1541459225, ptr %12, align 4, !tbaa !6
  %13 = getelementptr inbounds nuw i8, ptr %4, i64 108
  store i32 32, ptr %13, align 4, !tbaa !10
  %14 = icmp eq i64 %1, 0
  br i1 %14, label %SHA256_Update.exit, label %15

15:                                               ; preds = %3
  %16 = trunc i64 %1 to i32
  %17 = shl i32 %16, 3
  %18 = getelementptr inbounds nuw i8, ptr %4, i64 36
  %19 = lshr i64 %1, 29
  %20 = trunc i64 %19 to i32
  store i32 %20, ptr %18, align 4, !tbaa !12
  store i32 %17, ptr %5, align 4, !tbaa !13
  %21 = getelementptr inbounds nuw i8, ptr %4, i64 104
  %.not57.i = icmp ult i64 %1, 64
  br i1 %.not57.i, label %.thread, label %22

22:                                               ; preds = %15
  %23 = lshr i64 %1, 6
  call void @sha256_block_data_order(ptr noundef nonnull %4, ptr noundef %0, i64 noundef %23) #6
  %24 = and i64 %1, -64
  %25 = getelementptr inbounds nuw i8, ptr %0, i64 %24
  %26 = and i64 %1, 63
  %.not58.i = icmp eq i64 %26, 0
  br i1 %.not58.i, label %SHA256_Update.exit, label %.thread

.thread:                                          ; preds = %15, %22
  %.152.i8 = phi ptr [ %25, %22 ], [ %0, %15 ]
  %.154.i7 = phi i64 [ %26, %22 ], [ %1, %15 ]
  %27 = trunc nuw i64 %.154.i7 to i32
  store i32 %27, ptr %21, align 4, !tbaa !14
  %28 = getelementptr inbounds nuw i8, ptr %4, i64 40
  call void @llvm.memcpy.p0.p0.i64(ptr nonnull align 4 %28, ptr align 1 %.152.i8, i64 %.154.i7, i1 false)
  br label %SHA256_Update.exit

SHA256_Update.exit:                               ; preds = %3, %22, %.thread
  %29 = icmp eq ptr %2, null
  %spec.store.select = select i1 %29, ptr @SHA256.buf, ptr %2
  %30 = call i32 @SHA256_Final(ptr noundef nonnull %spec.store.select, ptr noundef nonnull %4)
  call void @OPENSSL_cleanse(ptr noundef nonnull %4, i64 noundef 112) #6
  call void @llvm.lifetime.end.p0(i64 112, ptr nonnull %4) #6
  ret ptr %spec.store.select
}